target datalayout = "e-m:e-p270:32:32-p271:32:32-p272:64:64-i64:64-i128:128-f80:128-n8:16:32:64-S128"
target triple = "x86_64-pc-linux-gnu"

%struct._zend_json_globals = type { i32, i32, i32 }
%struct._zval_struct = type { %union._zend_value, %union.anon, %union.anon.2 }
%union._zend_value = type { i64 }
%union.anon = type { i32 }
%union.anon.2 = type { i32 }
%struct._zend_execute_data = type { ptr, ptr, ptr, ptr, %struct._zval_struct, ptr, ptr, ptr, ptr }

@json_globals = dso_local global %struct._zend_json_globals zeroinitializer, align 4

; Function Attrs: nounwind uwtable
define hidden void @zif_json_last_error(ptr noundef %0, ptr noundef %1) #0 {
  %3 = alloca ptr, align 8
  %4 = alloca ptr, align 8
  %5 = alloca ptr, align 8
  store ptr %0, ptr %3, align 8, !tbaa !34
  store ptr %1, ptr %4, align 8, !tbaa !27
  br label %6

6:                                                ; preds = %2
  %7 = load ptr, ptr %3, align 8, !tbaa !34
  %8 = getelementptr inbounds nuw %struct._zend_execute_data, ptr %7, i32 0, i32 4
  %9 = getelementptr inbounds nuw %struct._zval_struct, ptr %8, i32 0, i32 2
  %10 = load i32, ptr %9, align 4, !tbaa !11
  %11 = icmp ne i32 %10, 0
  %12 = xor i1 %11, true
  %13 = xor i1 %12, true
  %14 = zext i1 %13 to i32
  %15 = sext i32 %14 to i64
  %16 = call i64 @llvm.expect.i64(i64 %15, i64 0)
  %17 = icmp ne i64 %16, 0
  br i1 %17, label %18, label %19

18:                                               ; preds = %6
  call void @zend_wrong_parameters_none_error()
  br label %31

19:                                               ; preds = %6
  br label %20

20:                                               ; preds = %19
  br label %21

21:                                               ; preds = %20
  br label %22

22:                                               ; preds = %21
  call void @llvm.lifetime.start.p0(i64 8, ptr %5) #14
  %23 = load ptr, ptr %4, align 8, !tbaa !27
  store ptr %23, ptr %5, align 8, !tbaa !27
  %24 = load i32, ptr getelementptr inbounds nuw (%struct._zend_json_globals, ptr @json_globals, i32 0, i32 2), align 4, !tbaa !12
  %25 = zext i32 %24 to i64
  %26 = load ptr, ptr %5, align 8, !tbaa !27
  %27 = getelementptr inbounds nuw %struct._zval_struct, ptr %26, i32 0, i32 0
  store i64 %25, ptr %27, align 8, !tbaa !11
  %28 = load ptr, ptr %5, align 8, !tbaa !27
  %29 = getelementptr inbounds nuw %struct._zval_struct, ptr %28, i32 0, i32 1
  store i32 4, ptr %29, align 8, !tbaa !11
  call void @llvm.lifetime.end.p0(i64 8, ptr %5) #14
  br label %30

30:                                               ; preds = %22
  br label %31

31:                                               ; preds = %18, %30
  ret void
}